; Function Attrs: nounwind sspstrong uwtable
define internal void @virtio_pci_device_write(ptr noundef readonly captures(none) %0, i64 noundef %1, i64 noundef %2, i32 noundef %3) #0 {
  %5 = getelementptr i8, ptr %0, i64 34160
  %.val = load ptr, ptr %5, align 8
  %.not.i = icmp eq ptr %.val, null
  br i1 %.not.i, label %virtio_bus_get_device.exit.thread, label %virtio_bus_get_device.exit

virtio_bus_get_device.exit:                       ; preds = %4
  %6 = getelementptr inbounds nuw i8, ptr %.val, i64 16
  %7 = load ptr, ptr %6, align 8
  %8 = icmp eq ptr %7, null
  br i1 %8, label %virtio_bus_get_device.exit.thread, label %9

9:                                                ; preds = %virtio_bus_get_device.exit
  switch i32 %3, label %virtio_bus_get_device.exit.thread [
    i32 1, label %10
    i32 2, label %13
    i32 4, label %16
  ]

10:                                               ; preds = %9
  %11 = trunc i64 %1 to i32
  %12 = trunc i64 %2 to i32
  tail call void @virtio_config_modern_writeb(ptr noundef nonnull %7, i32 noundef %11, i32 noundef %12) #15
  br label %virtio_bus_get_device.exit.thread

13:                                               ; preds = %9
  %14 = trunc i64 %1 to i32
  %15 = trunc i64 %2 to i32
  tail call void @virtio_config_modern_writew(ptr noundef nonnull %7, i32 noundef %14, i32 noundef %15) #15
  br label %virtio_bus_get_device.exit.thread

16:                                               ; preds = %9
  %17 = trunc i64 %1 to i32
  %18 = trunc i64 %2 to i32
  tail call void @virtio_config_modern_writel(ptr noundef nonnull %7, i32 noundef %17, i32 noundef %18) #15
  br label %virtio_bus_get_device.exit.thread

virtio_bus_get_device.exit.thread:                ; preds = %4, %9, %10, %13, %16, %virtio_bus_get_device.exit
  ret void
}